(dp0
S'top'
p1
cnumpy.core.multiarray
scalar
p2
(cnumpy
dtype
p3
(S'i4'
p4
I0
I1
tp5
Rp6
(I3
S'<'
p7
NNNI-1
I-1
I0
tp8
bS'\xc5\x00\x00\x00'
p9
tp10
Rp11
sS'right'
p12
g2
(g6
S'\x98\x01\x00\x00'
p13
tp14
Rp15
sS'bottom'
p16
g2
(g6
S'\xe0\x00\x00\x00'
p17
tp18
Rp19
sS'left'
p20
g2
(g6
S'\xd6\x00\x00\x00'
p21
tp22
Rp23
s.